target datalayout = "e-m:e-p270:32:32-p271:32:32-p272:64:64-i64:64-i128:128-f80:128-n8:16:32:64-S128"
target triple = "x86_64-pc-linux-gnu"

%class.RangeCoder = type { i32, i32, i32, %"struct.RangeCoder::SUBRANGE", ptr }
%"struct.RangeCoder::SUBRANGE" = type { i32, i32, i32 }

; Function Attrs: mustprogress uwtable
define linkonce_odr noundef i32 @_ZN10RangeCoder7GetCharEv(ptr noundef nonnull align 8 dereferenceable(32) %0) #0 comdat align 2 {
  %2 = alloca ptr, align 8
  store ptr %0, ptr %2, align 8
  %3 = load ptr, ptr %2, align 8
  %4 = getelementptr inbounds %class.RangeCoder, ptr %3, i32 0, i32 4
  %5 = load ptr, ptr %4, align 8
  %6 = call noundef i32 @_ZN6Unpack7GetCharEv(ptr noundef nonnull align 8 dereferenceable(59688) %5)
  ret i32 %6
}

; Function Attrs: mustprogress uwtable
define void @_ZN10RangeCoder11InitDecoderEP6Unpack(ptr noundef nonnull align 8 dereferenceable(32) %0, ptr noundef %1) #0 align 2 {
  %3 = alloca ptr, align 8
  %4 = alloca ptr, align 8
  %5 = alloca i32, align 4
  store ptr %0, ptr %3, align 8
  store ptr %1, ptr %4, align 8
  %6 = load ptr, ptr %3, align 8
  %7 = load ptr, ptr %4, align 8
  %8 = getelementptr inbounds %class.RangeCoder, ptr %6, i32 0, i32 4
  store ptr %7, ptr %8, align 8
  %9 = getelementptr inbounds %class.RangeCoder, ptr %6, i32 0, i32 1
  store i32 0, ptr %9, align 4
  %10 = getelementptr inbounds %class.RangeCoder, ptr %6, i32 0, i32 0
  store i32 0, ptr %10, align 8
  %11 = getelementptr inbounds %class.RangeCoder, ptr %6, i32 0, i32 2
  store i32 -1, ptr %11, align 8
  store i32 0, ptr %5, align 4
  br label %12

12:                                               ; preds = %22, %2
  %13 = load i32, ptr %5, align 4
  %14 = icmp slt i32 %13, 4
  br i1 %14, label %15, label %25

15:                                               ; preds = %12
  %16 = getelementptr inbounds %class.RangeCoder, ptr %6, i32 0, i32 1
  %17 = load i32, ptr %16, align 4
  %18 = shl i32 %17, 8
  %19 = call noundef i32 @_ZN10RangeCoder7GetCharEv(ptr noundef nonnull align 8 dereferenceable(32) %6)
  %20 = or i32 %18, %19
  %21 = getelementptr inbounds %class.RangeCoder, ptr %6, i32 0, i32 1
  store i32 %20, ptr %21, align 4
  br label %22

22:                                               ; preds = %15
  %23 = load i32, ptr %5, align 4
  %24 = add nsw i32 %23, 1
  store i32 %24, ptr %5, align 4
  br label %12, !llvm.loop !4

25:                                               ; preds = %12
  ret void
}