; Function Attrs: mustprogress uwtable
define void @_ZN10RangeCoder11InitDecoderEP6Unpack(ptr nocapture noundef nonnull align 8 dereferenceable(32) %0, ptr noundef %1) local_unnamed_addr #0 align 2 {
  %3 = getelementptr inbounds i8, ptr %0, i64 24
  store ptr %1, ptr %3, align 8
  %4 = getelementptr inbounds i8, ptr %0, i64 4
  store i32 0, ptr %4, align 4
  store i32 0, ptr %0, align 8
  %5 = getelementptr inbounds i8, ptr %0, i64 8
  store i32 -1, ptr %5, align 8
  br label %6

6:                                                ; preds = %2, %6
  %7 = phi i32 [ 0, %2 ], [ %11, %6 ]
  %.03 = phi i32 [ 0, %2 ], [ %12, %6 ]
  %8 = shl i32 %7, 8
  %9 = load ptr, ptr %3, align 8
  %10 = tail call noundef i32 @_ZN6Unpack7GetCharEv(ptr noundef nonnull align 8 dereferenceable(59688) %9)
  %11 = or i32 %10, %8
  store i32 %11, ptr %4, align 4
  %12 = add nuw nsw i32 %.03, 1
  %exitcond.not = icmp eq i32 %12, 4
  br i1 %exitcond.not, label %13, label %6, !llvm.loop !4

13:                                               ; preds = %6
  ret void
}